; Function Attrs: mustprogress nofree norecurse nosync nounwind willreturn memory(argmem: readwrite) uwtable
define range(i32 -1, 1) i32 @bufferevent_rate_limit_group_set_min_share(ptr noundef captures(none) %0, i64 noundef %1) local_unnamed_addr #0 {
  %3 = icmp slt i64 %1, 0
  br i1 %3, label %11, label %4

4:                                                ; preds = %2
  %5 = getelementptr inbounds nuw i8, ptr %0, i64 128
  store i64 %1, ptr %5, align 8
  %6 = getelementptr inbounds nuw i8, ptr %0, i64 32
  %7 = load i64, ptr %6, align 8
  %spec.select = tail call i64 @llvm.umin.i64(i64 %1, i64 %7)
  %8 = getelementptr inbounds nuw i8, ptr %0, i64 48
  %9 = load i64, ptr %8, align 8
  %.1 = tail call i64 @llvm.umin.i64(i64 %spec.select, i64 %9)
  %10 = getelementptr inbounds nuw i8, ptr %0, i64 120
  store i64 %.1, ptr %10, align 8
  br label %11

11:                                               ; preds = %2, %4
  %.011 = phi i32 [ 0, %4 ], [ -1, %2 ]
  ret i32 %.011
}